; Function Attrs: mustprogress uwtable
define noundef zeroext i1 @_ZNK32pxrInternal_v0_24__pxrReserved__14SdfPathPattern17HasLeadingStretchEv(ptr noundef nonnull align 8 dereferenceable(57) %0) local_unnamed_addr #1 align 2 {
  %2 = tail call noundef zeroext i1 @_ZNK32pxrInternal_v0_24__pxrReserved__7SdfPath18IsAbsoluteRootPathEv(ptr noundef nonnull align 4 dereferenceable(8) %0)
  br i1 %2, label %3, label %_ZNK32pxrInternal_v0_24__pxrReserved__14SdfPathPattern9Component9IsStretchEv.exit

3:                                                ; preds = %1
  %4 = getelementptr inbounds nuw i8, ptr %0, i64 8
  %5 = load ptr, ptr %4, align 8
  %6 = getelementptr inbounds i8, ptr %0, i64 16
  %7 = load ptr, ptr %6, align 8
  %8 = icmp eq ptr %5, %7
  br i1 %8, label %_ZNK32pxrInternal_v0_24__pxrReserved__14SdfPathPattern9Component9IsStretchEv.exit, label %9

9:                                                ; preds = %3
  %10 = getelementptr inbounds nuw i8, ptr %5, i64 32
  %11 = load i32, ptr %10, align 8
  %12 = icmp eq i32 %11, -1
  br i1 %12, label %13, label %_ZNK32pxrInternal_v0_24__pxrReserved__14SdfPathPattern9Component9IsStretchEv.exit

13:                                               ; preds = %9
  %14 = tail call noundef zeroext i1 @_ZNKSt7__cxx1112basic_stringIcSt11char_traitsIcESaIcEE5emptyEv(ptr noundef nonnull align 8 dereferenceable(32) %5) #17
  br label %_ZNK32pxrInternal_v0_24__pxrReserved__14SdfPathPattern9Component9IsStretchEv.exit

_ZNK32pxrInternal_v0_24__pxrReserved__14SdfPathPattern9Component9IsStretchEv.exit: ; preds = %13, %9, %3, %1
  %15 = phi i1 [ false, %3 ], [ false, %1 ], [ false, %9 ], [ %14, %13 ]
  ret i1 %15
}